; Function Attrs: mustprogress uwtable
define hidden noundef ptr @_ZN6google8protobuf8internal10WireFormat46InternalSerializeUnknownMessageSetItemsToArrayERKNS0_15UnknownFieldSetEPhPNS0_2io19EpsCopyOutputStreamE(ptr noundef nonnull readonly align 8 captures(none) dereferenceable(24) %0, ptr noundef %1, ptr noundef %2) local_unnamed_addr #3 align 2 {
  %4 = getelementptr inbounds nuw i8, ptr %0, i64 8
  %5 = load ptr, ptr %4, align 8, !tbaa !31
  %6 = load ptr, ptr %0, align 8, !tbaa !34
  %7 = ptrtoint ptr %5 to i64
  %8 = ptrtoint ptr %6 to i64
  %9 = sub i64 %7, %8
  %10 = lshr exact i64 %9, 4
  %11 = trunc i64 %10 to i32
  %12 = icmp sgt i32 %11, 0
  br i1 %12, label %.lr.ph, label %._crit_edge

._crit_edge:                                      ; preds = %49, %3
  %.0.lcssa = phi ptr [ %1, %3 ], [ %.1, %49 ]
  ret ptr %.0.lcssa

.lr.ph:                                           ; preds = %3, %49
  %13 = phi ptr [ %50, %49 ], [ %6, %3 ]
  %14 = phi ptr [ %51, %49 ], [ %5, %3 ]
  %indvars.iv = phi i64 [ %indvars.iv.next, %49 ], [ 0, %3 ]
  %.026 = phi ptr [ %.1, %49 ], [ %1, %3 ]
  %15 = getelementptr inbounds nuw %"class.google::protobuf::UnknownField", ptr %13, i64 %indvars.iv
  %16 = getelementptr inbounds nuw i8, ptr %15, i64 4
  %17 = load i32, ptr %16, align 4, !tbaa !38
  %18 = icmp eq i32 %17, 3
  br i1 %18, label %19, label %49

19:                                               ; preds = %.lr.ph
  %20 = load ptr, ptr %2, align 8, !tbaa !35
  %.not.i = icmp ult ptr %.026, %20
  br i1 %.not.i, label %_ZN6google8protobuf2io19EpsCopyOutputStream11EnsureSpaceEPh.exit, label %21, !prof !19

21:                                               ; preds = %19
  %22 = tail call noundef ptr @_ZN6google8protobuf2io19EpsCopyOutputStream19EnsureSpaceFallbackEPh(ptr noundef nonnull align 8 dereferenceable(59) %2, ptr noundef %.026)
  br label %_ZN6google8protobuf2io19EpsCopyOutputStream11EnsureSpaceEPh.exit

_ZN6google8protobuf2io19EpsCopyOutputStream11EnsureSpaceEPh.exit: ; preds = %19, %21
  %.0.i = phi ptr [ %22, %21 ], [ %.026, %19 ]
  store i8 11, ptr %.0.i, align 1, !tbaa !20
  %23 = getelementptr inbounds nuw i8, ptr %.0.i, i64 1
  store i8 16, ptr %23, align 1, !tbaa !20
  %24 = getelementptr inbounds nuw i8, ptr %.0.i, i64 2
  %25 = load i32, ptr %15, align 8, !tbaa !40
  %26 = trunc i32 %25 to i8
  store i8 %26, ptr %24, align 1, !tbaa !20
  %27 = icmp ult i32 %25, 128
  br i1 %27, label %28, label %30

28:                                               ; preds = %_ZN6google8protobuf2io19EpsCopyOutputStream11EnsureSpaceEPh.exit
  %29 = getelementptr inbounds nuw i8, ptr %.0.i, i64 3
  br label %_ZN6google8protobuf2io17CodedOutputStream20WriteVarint32ToArrayEjPh.exit

30:                                               ; preds = %_ZN6google8protobuf2io19EpsCopyOutputStream11EnsureSpaceEPh.exit
  %31 = or i8 %26, -128
  store i8 %31, ptr %24, align 1, !tbaa !20
  %32 = lshr i32 %25, 7
  %33 = trunc i32 %32 to i8
  %34 = getelementptr inbounds nuw i8, ptr %.0.i, i64 3
  store i8 %33, ptr %34, align 1, !tbaa !20
  %35 = icmp ult i32 %25, 16384
  %36 = getelementptr inbounds nuw i8, ptr %.0.i, i64 4
  br i1 %35, label %_ZN6google8protobuf2io17CodedOutputStream20WriteVarint32ToArrayEjPh.exit, label %.preheader.preheader

.preheader.preheader:                             ; preds = %30
  %scevgep = getelementptr i8, ptr %.0.i, i64 3
  %load_initial = load i8, ptr %scevgep, align 1
  br label %.preheader

.preheader:                                       ; preds = %.preheader.preheader, %.preheader
  %store_forwarded = phi i8 [ %load_initial, %.preheader.preheader ], [ %40, %.preheader ]
  %.018.i.i = phi i32 [ %32, %.preheader.preheader ], [ %39, %.preheader ]
  %.0.i.i = phi ptr [ %36, %.preheader.preheader ], [ %41, %.preheader ]
  %37 = getelementptr inbounds i8, ptr %.0.i.i, i64 -1
  %38 = or i8 %store_forwarded, -128
  store i8 %38, ptr %37, align 1, !tbaa !20
  %39 = lshr i32 %.018.i.i, 7
  %40 = trunc i32 %39 to i8
  store i8 %40, ptr %.0.i.i, align 1, !tbaa !20
  %41 = getelementptr inbounds nuw i8, ptr %.0.i.i, i64 1
  %42 = icmp samesign ugt i32 %.018.i.i, 16383
  br i1 %42, label %.preheader, label %_ZN6google8protobuf2io17CodedOutputStream20WriteVarint32ToArrayEjPh.exit, !llvm.loop !41

_ZN6google8protobuf2io17CodedOutputStream20WriteVarint32ToArrayEjPh.exit: ; preds = %.preheader, %28, %30
  %.019.i.i = phi ptr [ %29, %28 ], [ %36, %30 ], [ %41, %.preheader ]
  store i8 26, ptr %.019.i.i, align 1, !tbaa !20
  %43 = getelementptr inbounds nuw i8, ptr %.019.i.i, i64 1
  %44 = tail call noundef ptr @_ZNK6google8protobuf12UnknownField37InternalSerializeLengthDelimitedNoTagEPhPNS0_2io19EpsCopyOutputStreamE(ptr noundef nonnull align 8 dereferenceable(16) %15, ptr noundef nonnull %43, ptr noundef nonnull %2)
  %45 = load ptr, ptr %2, align 8, !tbaa !35
  %.not.i21 = icmp ult ptr %44, %45
  br i1 %.not.i21, label %_ZN6google8protobuf2io19EpsCopyOutputStream11EnsureSpaceEPh.exit23, label %46, !prof !19

46:                                               ; preds = %_ZN6google8protobuf2io17CodedOutputStream20WriteVarint32ToArrayEjPh.exit
  %47 = tail call noundef ptr @_ZN6google8protobuf2io19EpsCopyOutputStream19EnsureSpaceFallbackEPh(ptr noundef nonnull align 8 dereferenceable(59) %2, ptr noundef %44)
  br label %_ZN6google8protobuf2io19EpsCopyOutputStream11EnsureSpaceEPh.exit23

_ZN6google8protobuf2io19EpsCopyOutputStream11EnsureSpaceEPh.exit23: ; preds = %_ZN6google8protobuf2io17CodedOutputStream20WriteVarint32ToArrayEjPh.exit, %46
  %.0.i22 = phi ptr [ %47, %46 ], [ %44, %_ZN6google8protobuf2io17CodedOutputStream20WriteVarint32ToArrayEjPh.exit ]
  store i8 12, ptr %.0.i22, align 1, !tbaa !20
  %48 = getelementptr inbounds nuw i8, ptr %.0.i22, i64 1
  %.pre = load ptr, ptr %4, align 8, !tbaa !31
  %.pre28 = load ptr, ptr %0, align 8, !tbaa !34
  br label %49

49:                                               ; preds = %_ZN6google8protobuf2io19EpsCopyOutputStream11EnsureSpaceEPh.exit23, %.lr.ph
  %50 = phi ptr [ %.pre28, %_ZN6google8protobuf2io19EpsCopyOutputStream11EnsureSpaceEPh.exit23 ], [ %13, %.lr.ph ]
  %51 = phi ptr [ %.pre, %_ZN6google8protobuf2io19EpsCopyOutputStream11EnsureSpaceEPh.exit23 ], [ %14, %.lr.ph ]
  %.1 = phi ptr [ %48, %_ZN6google8protobuf2io19EpsCopyOutputStream11EnsureSpaceEPh.exit23 ], [ %.026, %.lr.ph ]
  %indvars.iv.next = add nuw nsw i64 %indvars.iv, 1
  %52 = ptrtoint ptr %51 to i64
  %53 = ptrtoint ptr %50 to i64
  %54 = sub i64 %52, %53
  %sext = shl i64 %54, 28
  %55 = ashr i64 %sext, 32
  %56 = icmp slt i64 %indvars.iv.next, %55
  br i1 %56, label %.lr.ph, label %._crit_edge, !llvm.loop !50
}